; Function Attrs: null_pointer_is_valid sspstrong uwtable
define internal fastcc range(i32 6, 8) i32 @dissect_bthci_evt_encryption_change(ptr noundef %0, ptr noundef %1, ptr noundef %2, ptr noundef nonnull readonly captures(none) %3, i1 noundef zeroext %4) unnamed_addr #1 {
  %6 = load i32, ptr @hf_bthci_evt_status, align 4
  %7 = tail call ptr @proto_tree_add_item(ptr noundef %2, i32 noundef %6, ptr noundef %0, i32 noundef 2, i32 noundef 1, i32 noundef -2147483648)
  %8 = tail call zeroext i8 @tvb_get_uint8(ptr noundef %0, i32 noundef 2)
  %9 = load i32, ptr @bluetooth_hci_summary_tap, align 4
  %10 = tail call zeroext i1 @have_tap_listener(i32 noundef %9)
  br i1 %10, label %11, label %send_hci_summary_status_tap.exit

11:                                               ; preds = %5
  %12 = getelementptr inbounds nuw i8, ptr %1, i64 408
  %13 = load ptr, ptr %12, align 8
  %14 = tail call noalias dereferenceable_or_null(32) ptr @wmem_alloc(ptr noundef %13, i64 noundef 32) #11
  %15 = load i32, ptr %3, align 8
  store i32 %15, ptr %14, align 8
  %16 = getelementptr inbounds nuw i8, ptr %3, i64 4
  %17 = load i32, ptr %16, align 4
  %18 = getelementptr inbounds nuw i8, ptr %14, i64 4
  store i32 %17, ptr %18, align 4
  %19 = getelementptr inbounds nuw i8, ptr %14, i64 24
  store i32 7, ptr %19, align 8
  %20 = getelementptr inbounds nuw i8, ptr %14, i64 13
  store i8 %8, ptr %20, align 1
  %21 = zext i8 %8 to i32
  %22 = tail call ptr @try_val_to_str_ext(i32 noundef %21, ptr noundef nonnull @bthci_cmd_status_vals_ext)
  %.not.i = icmp eq ptr %22, null
  br i1 %.not.i, label %25, label %23

23:                                               ; preds = %11
  %24 = tail call ptr @val_to_str_ext(i32 noundef %21, ptr noundef nonnull @bthci_cmd_status_vals_ext, ptr noundef nonnull @.str.1819)
  br label %25

25:                                               ; preds = %23, %11
  %.sink.i = phi ptr [ %24, %23 ], [ null, %11 ]
  %26 = getelementptr inbounds nuw i8, ptr %14, i64 16
  store ptr %.sink.i, ptr %26, align 8
  %27 = load i32, ptr @bluetooth_hci_summary_tap, align 4
  tail call void @tap_queue_packet(i32 noundef %27, ptr noundef %1, ptr noundef %14)
  br label %send_hci_summary_status_tap.exit

send_hci_summary_status_tap.exit:                 ; preds = %5, %25
  %28 = load i32, ptr @hf_bthci_evt_connection_handle, align 4
  %29 = tail call ptr @proto_tree_add_item(ptr noundef %2, i32 noundef %28, ptr noundef %0, i32 noundef 3, i32 noundef 2, i32 noundef -2147483648)
  %30 = load i32, ptr @hf_bthci_evt_encryption_enable, align 4
  %31 = tail call ptr @proto_tree_add_item(ptr noundef %2, i32 noundef %30, ptr noundef %0, i32 noundef 5, i32 noundef 1, i32 noundef -2147483648)
  br i1 %4, label %32, label %35

32:                                               ; preds = %send_hci_summary_status_tap.exit
  %33 = load i32, ptr @hf_bthci_evt_enc_key_size, align 4
  %34 = tail call ptr @proto_tree_add_item(ptr noundef %2, i32 noundef %33, ptr noundef %0, i32 noundef 6, i32 noundef 1, i32 noundef -2147483648)
  br label %35

35:                                               ; preds = %32, %send_hci_summary_status_tap.exit
  %.0 = phi i32 [ 7, %32 ], [ 6, %send_hci_summary_status_tap.exit ]
  ret i32 %.0
}